target datalayout = "e-m:e-p270:32:32-p271:32:32-p272:64:64-i64:64-i128:128-f80:128-n8:16:32:64-S128"
target triple = "x86_64-pc-linux-gnu"

%struct._object = type { %union.anon, ptr }
%union.anon = type { i64 }
%struct._frame = type { %struct._object, ptr, ptr, ptr, i32, i8, i8, ptr, ptr, [1 x ptr] }
%struct._PyInterpreterFrame = type { %union._PyStackRef, ptr, %union._PyStackRef, ptr, ptr, ptr, ptr, ptr, ptr, i16, i8, i8, [1 x %union._PyStackRef] }
%union._PyStackRef = type { i64 }
%struct._ts = type { ptr, ptr, ptr, i64, %struct.anon.0, i32, i32, i32, i32, i32, i32, i32, i32, ptr, ptr, ptr, ptr, ptr, ptr, ptr, ptr, i32, ptr, i64, i64, ptr, i64, i32, ptr, ptr, ptr, i64, i64, ptr, ptr, ptr, %struct._err_stackitem, ptr, i64, ptr, ptr }
%struct.anon.0 = type { i32 }
%struct._err_stackitem = type { ptr, ptr }
%struct._PyLegacyEventHandler = type { %struct._object, ptr, i32 }
%struct.anon = type { i32, i32 }

@_Py_tss_tstate = external thread_local global ptr, align 8
@_Py_NoneStruct = external global %struct._object, align 8
@PyExc_SystemError = external global ptr, align 8
@.str.4 = private unnamed_addr constant [43 x i8] c"Missing frame when calling trace function.\00", align 1

; Function Attrs: alwaysinline nounwind uwtable
define internal i32 @_Py_IsImmortal(ptr noundef %0) #5 {
  %2 = alloca ptr, align 8
  store ptr %0, ptr %2, align 8, !tbaa !25
  %3 = load ptr, ptr %2, align 8, !tbaa !25
  %4 = getelementptr inbounds nuw %struct._object, ptr %3, i32 0, i32 0
  %5 = getelementptr inbounds nuw %struct.anon, ptr %4, i32 0, i32 0
  %6 = load i32, ptr %5, align 8, !tbaa !24
  %7 = icmp slt i32 %6, 0
  %8 = zext i1 %7 to i32
  ret i32 %8
}

; Function Attrs: inlinehint nounwind uwtable
define internal ptr @_PyFrame_GetCode(ptr noundef %0) #2 {
  %2 = alloca ptr, align 8
  %3 = alloca ptr, align 8
  store ptr %0, ptr %2, align 8, !tbaa !23
  call void @llvm.lifetime.start.p0(i64 8, ptr %3) #6
  %4 = load ptr, ptr %2, align 8, !tbaa !23
  %5 = getelementptr inbounds nuw %struct._PyInterpreterFrame, ptr %4, i32 0, i32 0
  %6 = load i64, ptr %5, align 8, !tbaa !24
  %7 = inttoptr i64 %6 to ptr
  store ptr %7, ptr %3, align 8, !tbaa !25
  %8 = load ptr, ptr %3, align 8, !tbaa !25
  call void @llvm.lifetime.end.p0(i64 8, ptr %3) #6
  ret ptr %8
}

; Function Attrs: alwaysinline nounwind uwtable
define internal void @Py_DECREF(ptr noundef %0) #5 {
  %2 = alloca ptr, align 8
  store ptr %0, ptr %2, align 8, !tbaa !25
  %3 = load ptr, ptr %2, align 8, !tbaa !25
  %4 = call i32 @_Py_IsImmortal(ptr noundef %3)
  %5 = icmp ne i32 %4, 0
  br i1 %5, label %6, label %7

6:                                                ; preds = %1
  br label %16

7:                                                ; preds = %1
  %8 = load ptr, ptr %2, align 8, !tbaa !25
  %9 = getelementptr inbounds nuw %struct._object, ptr %8, i32 0, i32 0
  %10 = getelementptr inbounds nuw %struct.anon, ptr %9, i32 0, i32 0
  %11 = load i32, ptr %10, align 8, !tbaa !24
  %12 = add i32 %11, -1
  store i32 %12, ptr %10, align 8, !tbaa !24
  %13 = icmp eq i32 %12, 0
  br i1 %13, label %14, label %16

14:                                               ; preds = %7
  %15 = load ptr, ptr %2, align 8, !tbaa !25
  call void @_Py_Dealloc(ptr noundef %15)
  br label %16

16:                                               ; preds = %6, %14, %7
  ret void
}

; Function Attrs: alwaysinline nounwind uwtable
define internal void @Py_INCREF(ptr noundef %0) #5 {
  %2 = alloca ptr, align 8
  %3 = alloca i32, align 4
  %4 = alloca i32, align 4
  store ptr %0, ptr %2, align 8, !tbaa !25
  call void @llvm.lifetime.start.p0(i64 4, ptr %3) #6
  %5 = load ptr, ptr %2, align 8, !tbaa !25
  %6 = getelementptr inbounds nuw %struct._object, ptr %5, i32 0, i32 0
  %7 = getelementptr inbounds nuw %struct.anon, ptr %6, i32 0, i32 0
  %8 = load i32, ptr %7, align 8, !tbaa !24
  store i32 %8, ptr %3, align 4, !tbaa !20
  %9 = load i32, ptr %3, align 4, !tbaa !20
  %10 = icmp slt i32 %9, 0
  br i1 %10, label %11, label %12

11:                                               ; preds = %1
  store i32 1, ptr %4, align 4
  br label %18

12:                                               ; preds = %1
  %13 = load i32, ptr %3, align 4, !tbaa !20
  %14 = add i32 %13, 1
  %15 = load ptr, ptr %2, align 8, !tbaa !25
  %16 = getelementptr inbounds nuw %struct._object, ptr %15, i32 0, i32 0
  %17 = getelementptr inbounds nuw %struct.anon, ptr %16, i32 0, i32 0
  store i32 %14, ptr %17, align 8, !tbaa !24
  store i32 0, ptr %4, align 4
  br label %18

18:                                               ; preds = %12, %11
  call void @llvm.lifetime.end.p0(i64 4, ptr %3) #6
  %19 = load i32, ptr %4, align 4
  switch i32 %19, label %21 [
    i32 0, label %20
    i32 1, label %20
  ]

20:                                               ; preds = %18, %18
  ret void

21:                                               ; preds = %18
  unreachable
}

; Function Attrs: nounwind uwtable
define hidden i32 @_PyEval_SetOpcodeTrace(ptr noundef %0, i1 noundef zeroext %1) #0 {
  %3 = alloca i32, align 4
  %4 = alloca ptr, align 8
  %5 = alloca i8, align 1
  %6 = alloca ptr, align 8
  %7 = alloca i32, align 4
  %8 = alloca i32, align 4
  store ptr %0, ptr %4, align 8, !tbaa !4
  %9 = zext i1 %1 to i8
  store i8 %9, ptr %5, align 1, !tbaa !9
  call void @llvm.lifetime.start.p0(i64 8, ptr %6) #6
  %10 = load ptr, ptr %4, align 8, !tbaa !4
  %11 = getelementptr inbounds nuw %struct._frame, ptr %10, i32 0, i32 2
  %12 = load ptr, ptr %11, align 8, !tbaa !11
  %13 = call ptr @_PyFrame_GetCode(ptr noundef %12)
  store ptr %13, ptr %6, align 8, !tbaa !18
  call void @llvm.lifetime.start.p0(i64 4, ptr %7) #6
  store i32 0, ptr %7, align 4, !tbaa !20
  %14 = load ptr, ptr %6, align 8, !tbaa !18
  %15 = call i32 @_PyMonitoring_GetLocalEvents(ptr noundef %14, i32 noundef 7, ptr noundef %7)
  %16 = icmp slt i32 %15, 0
  br i1 %16, label %17, label %18

17:                                               ; preds = %2
  store i32 -1, ptr %3, align 4
  store i32 1, ptr %8, align 4
  br label %41

18:                                               ; preds = %2
  %19 = load i8, ptr %5, align 1, !tbaa !9, !range !21, !noundef !22
  %20 = trunc i8 %19 to i1
  br i1 %20, label %21, label %29

21:                                               ; preds = %18
  %22 = load i32, ptr %7, align 4, !tbaa !20
  %23 = and i32 %22, 64
  %24 = icmp ne i32 %23, 0
  br i1 %24, label %25, label %26

25:                                               ; preds = %21
  store i32 0, ptr %3, align 4
  store i32 1, ptr %8, align 4
  br label %41

26:                                               ; preds = %21
  %27 = load i32, ptr %7, align 4, !tbaa !20
  %28 = or i32 %27, 64
  store i32 %28, ptr %7, align 4, !tbaa !20
  br label %37

29:                                               ; preds = %18
  %30 = load i32, ptr %7, align 4, !tbaa !20
  %31 = and i32 %30, 64
  %32 = icmp ne i32 %31, 0
  br i1 %32, label %34, label %33

33:                                               ; preds = %29
  store i32 0, ptr %3, align 4
  store i32 1, ptr %8, align 4
  br label %41

34:                                               ; preds = %29
  %35 = load i32, ptr %7, align 4, !tbaa !20
  %36 = and i32 %35, -65
  store i32 %36, ptr %7, align 4, !tbaa !20
  br label %37

37:                                               ; preds = %34, %26
  %38 = load ptr, ptr %6, align 8, !tbaa !18
  %39 = load i32, ptr %7, align 4, !tbaa !20
  %40 = call i32 @_PyMonitoring_SetLocalEvents(ptr noundef %38, i32 noundef 7, i32 noundef %39)
  store i32 %40, ptr %3, align 4
  store i32 1, ptr %8, align 4
  br label %41

41:                                               ; preds = %37, %33, %25, %17
  call void @llvm.lifetime.end.p0(i64 4, ptr %7) #6
  call void @llvm.lifetime.end.p0(i64 8, ptr %6) #6
  %42 = load i32, ptr %3, align 4
  ret i32 %42
}

; Function Attrs: inlinehint nounwind uwtable
define internal ptr @_PyThreadState_GET() #2 {
  %1 = call align 8 ptr @llvm.threadlocal.address.p0(ptr align 8 @_Py_tss_tstate)
  %2 = load ptr, ptr %1, align 8, !tbaa !26
  ret ptr %2
}

; Function Attrs: nounwind uwtable
define internal ptr @sys_trace_instruction_func(ptr noundef %0, ptr noundef %1, i64 noundef %2, ptr noundef %3) #0 {
  %5 = alloca ptr, align 8
  %6 = alloca ptr, align 8
  %7 = alloca ptr, align 8
  %8 = alloca i64, align 8
  %9 = alloca ptr, align 8
  %10 = alloca ptr, align 8
  %11 = alloca i32, align 4
  %12 = alloca ptr, align 8
  %13 = alloca i32, align 4
  store ptr %0, ptr %6, align 8, !tbaa !117
  store ptr %1, ptr %7, align 8, !tbaa !31
  store i64 %2, ptr %8, align 8, !tbaa !29
  store ptr %3, ptr %9, align 8, !tbaa !25
  call void @llvm.lifetime.start.p0(i64 8, ptr %10) #6
  %14 = call ptr @PyEval_GetFrame()
  store ptr %14, ptr %10, align 8, !tbaa !4
  %15 = load ptr, ptr %10, align 8, !tbaa !4
  %16 = icmp eq ptr %15, null
  br i1 %16, label %17, label %19

17:                                               ; preds = %4
  %18 = load ptr, ptr @PyExc_SystemError, align 8, !tbaa !25
  call void @PyErr_SetString(ptr noundef %18, ptr noundef @.str.4)
  store ptr null, ptr %5, align 8
  store i32 1, ptr %11, align 4
  br label %58

19:                                               ; preds = %4
  call void @llvm.lifetime.start.p0(i64 8, ptr %12) #6
  %20 = call ptr @_PyThreadState_GET()
  store ptr %20, ptr %12, align 8, !tbaa !26
  %21 = load ptr, ptr %12, align 8, !tbaa !26
  %22 = getelementptr inbounds nuw %struct._ts, ptr %21, i32 0, i32 15
  %23 = load ptr, ptr %22, align 8, !tbaa !114
  %24 = icmp ne ptr %23, null
  br i1 %24, label %25, label %30

25:                                               ; preds = %19
  %26 = load ptr, ptr %10, align 8, !tbaa !4
  %27 = getelementptr inbounds nuw %struct._frame, ptr %26, i32 0, i32 6
  %28 = load i8, ptr %27, align 1, !tbaa !112
  %29 = icmp ne i8 %28, 0
  br i1 %29, label %36, label %30

30:                                               ; preds = %25, %19
  %31 = load ptr, ptr %10, align 8, !tbaa !4
  %32 = call i32 @_PyEval_SetOpcodeTrace(ptr noundef %31, i1 noundef zeroext false)
  %33 = icmp ne i32 %32, 0
  br i1 %33, label %34, label %35

34:                                               ; preds = %30
  store ptr null, ptr %5, align 8
  store i32 1, ptr %11, align 4
  br label %57

35:                                               ; preds = %30
  store ptr @_Py_NoneStruct, ptr %5, align 8
  store i32 1, ptr %11, align 4
  br label %57

36:                                               ; preds = %25
  %37 = load ptr, ptr %10, align 8, !tbaa !4
  call void @Py_INCREF(ptr noundef %37)
  call void @llvm.lifetime.start.p0(i64 4, ptr %13) #6
  %38 = load ptr, ptr %12, align 8, !tbaa !26
  %39 = getelementptr inbounds nuw %struct._ts, ptr %38, i32 0, i32 15
  %40 = load ptr, ptr %39, align 8, !tbaa !114
  %41 = load ptr, ptr %12, align 8, !tbaa !26
  %42 = getelementptr inbounds nuw %struct._ts, ptr %41, i32 0, i32 17
  %43 = load ptr, ptr %42, align 8, !tbaa !115
  %44 = load ptr, ptr %10, align 8, !tbaa !4
  %45 = load ptr, ptr %6, align 8, !tbaa !117
  %46 = getelementptr inbounds nuw %struct._PyLegacyEventHandler, ptr %45, i32 0, i32 2
  %47 = load i32, ptr %46, align 8, !tbaa !121
  %48 = call i32 %40(ptr noundef %43, ptr noundef %44, i32 noundef %47, ptr noundef @_Py_NoneStruct)
  store i32 %48, ptr %13, align 4, !tbaa !20
  %49 = load ptr, ptr %10, align 8, !tbaa !4
  %50 = getelementptr inbounds nuw %struct._frame, ptr %49, i32 0, i32 4
  store i32 0, ptr %50, align 8, !tbaa !134
  %51 = load ptr, ptr %10, align 8, !tbaa !4
  call void @Py_DECREF(ptr noundef %51)
  %52 = load i32, ptr %13, align 4, !tbaa !20
  %53 = icmp ne i32 %52, 0
  br i1 %53, label %54, label %55

54:                                               ; preds = %36
  store ptr null, ptr %5, align 8
  store i32 1, ptr %11, align 4
  br label %56

55:                                               ; preds = %36
  store ptr @_Py_NoneStruct, ptr %5, align 8
  store i32 1, ptr %11, align 4
  br label %56

56:                                               ; preds = %55, %54
  call void @llvm.lifetime.end.p0(i64 4, ptr %13) #6
  br label %57

57:                                               ; preds = %56, %35, %34
  call void @llvm.lifetime.end.p0(i64 8, ptr %12) #6
  br label %58

58:                                               ; preds = %57, %17
  call void @llvm.lifetime.end.p0(i64 8, ptr %10) #6
  %59 = load ptr, ptr %5, align 8
  ret ptr %59
}