; Function Attrs: nounwind uwtable
define internal ptr @sys_trace_instruction_func(ptr noundef readonly captures(none) %0, ptr readnone captures(none) %1, i64 %2, ptr readnone captures(none) %3) #0 {
  %5 = alloca i32, align 4
  %6 = tail call ptr @PyEval_GetFrame() #4
  %7 = icmp eq ptr %6, null
  br i1 %7, label %8, label %10

8:                                                ; preds = %4
  %9 = load ptr, ptr @PyExc_SystemError, align 8, !tbaa !111
  tail call void @PyErr_SetString(ptr noundef %9, ptr noundef nonnull @.str.4) #4
  br label %47

10:                                               ; preds = %4
  %11 = tail call align 8 ptr @llvm.threadlocal.address.p0(ptr align 8 @_Py_tss_tstate)
  %12 = load ptr, ptr %11, align 8, !tbaa !17
  %13 = getelementptr inbounds nuw i8, ptr %12, i64 88
  %14 = load ptr, ptr %13, align 8, !tbaa !107
  %.not = icmp eq ptr %14, null
  br i1 %.not, label %18, label %15

15:                                               ; preds = %10
  %16 = getelementptr inbounds nuw i8, ptr %6, i64 45
  %17 = load i8, ptr %16, align 1, !tbaa !110
  %.not13 = icmp eq i8 %17, 0
  br i1 %.not13, label %18, label %30

18:                                               ; preds = %15, %10
  %19 = getelementptr inbounds nuw i8, ptr %6, i64 24
  %20 = load ptr, ptr %19, align 8, !tbaa !4
  %.val.i = load i64, ptr %20, align 8, !tbaa !15
  %21 = inttoptr i64 %.val.i to ptr
  call void @llvm.lifetime.start.p0(i64 4, ptr nonnull %5) #4
  store i32 0, ptr %5, align 4, !tbaa !16
  %22 = call i32 @_PyMonitoring_GetLocalEvents(ptr noundef %21, i32 noundef 7, ptr noundef nonnull %5) #4
  %23 = icmp slt i32 %22, 0
  br i1 %23, label %_PyEval_SetOpcodeTrace.exit.thread20, label %24

_PyEval_SetOpcodeTrace.exit.thread20:             ; preds = %18
  call void @llvm.lifetime.end.p0(i64 4, ptr nonnull %5) #4
  br label %47

24:                                               ; preds = %18
  %25 = load i32, ptr %5, align 4, !tbaa !16
  %26 = and i32 %25, 64
  %.not4.i = icmp eq i32 %26, 0
  br i1 %.not4.i, label %_PyEval_SetOpcodeTrace.exit.thread, label %_PyEval_SetOpcodeTrace.exit

_PyEval_SetOpcodeTrace.exit.thread:               ; preds = %24
  call void @llvm.lifetime.end.p0(i64 4, ptr nonnull %5) #4
  br label %29

_PyEval_SetOpcodeTrace.exit:                      ; preds = %24
  %27 = and i32 %25, -65
  store i32 %27, ptr %5, align 4, !tbaa !16
  %28 = call i32 @_PyMonitoring_SetLocalEvents(ptr noundef %21, i32 noundef 7, i32 noundef %27) #4
  call void @llvm.lifetime.end.p0(i64 4, ptr nonnull %5) #4
  %.fr = freeze i32 %28
  %.not14 = icmp eq i32 %.fr, 0
  br i1 %.not14, label %29, label %47

29:                                               ; preds = %_PyEval_SetOpcodeTrace.exit.thread, %_PyEval_SetOpcodeTrace.exit
  br label %47

30:                                               ; preds = %15
  %31 = load i32, ptr %6, align 8, !tbaa !15
  %32 = icmp slt i32 %31, 0
  br i1 %32, label %Py_INCREF.exit, label %33

33:                                               ; preds = %30
  %34 = add nuw i32 %31, 1
  store i32 %34, ptr %6, align 8, !tbaa !15
  %.pre = load ptr, ptr %13, align 8, !tbaa !107
  br label %Py_INCREF.exit

Py_INCREF.exit:                                   ; preds = %30, %33
  %35 = phi ptr [ %14, %30 ], [ %.pre, %33 ]
  %36 = getelementptr inbounds nuw i8, ptr %12, i64 104
  %37 = load ptr, ptr %36, align 8, !tbaa !108
  %38 = getelementptr inbounds nuw i8, ptr %0, i64 24
  %39 = load i32, ptr %38, align 8, !tbaa !102
  %40 = tail call i32 %35(ptr noundef %37, ptr noundef nonnull %6, i32 noundef %39, ptr noundef nonnull @_Py_NoneStruct) #4
  %41 = getelementptr inbounds nuw i8, ptr %6, i64 40
  store i32 0, ptr %41, align 8, !tbaa !123
  %42 = load i32, ptr %6, align 8, !tbaa !15
  %.not.i = icmp sgt i32 %42, -1
  br i1 %.not.i, label %43, label %Py_DECREF.exit

43:                                               ; preds = %Py_INCREF.exit
  %44 = add nsw i32 %42, -1
  store i32 %44, ptr %6, align 8, !tbaa !15
  %45 = icmp eq i32 %44, 0
  br i1 %45, label %46, label %Py_DECREF.exit

46:                                               ; preds = %43
  tail call void @_Py_Dealloc(ptr noundef nonnull %6) #4
  br label %Py_DECREF.exit

Py_DECREF.exit:                                   ; preds = %Py_INCREF.exit, %43, %46
  %.not15 = icmp eq i32 %40, 0
  %_Py_NoneStruct.16 = select i1 %.not15, ptr @_Py_NoneStruct, ptr null
  br label %47

47:                                               ; preds = %29, %_PyEval_SetOpcodeTrace.exit, %_PyEval_SetOpcodeTrace.exit.thread20, %Py_DECREF.exit, %8
  %.0 = phi ptr [ null, %8 ], [ %_Py_NoneStruct.16, %Py_DECREF.exit ], [ @_Py_NoneStruct, %29 ], [ null, %_PyEval_SetOpcodeTrace.exit ], [ null, %_PyEval_SetOpcodeTrace.exit.thread20 ]
  ret ptr %.0
}